target datalayout = "e-m:e-p270:32:32-p271:32:32-p272:64:64-i64:64-i128:128-f80:128-n8:16:32:64-S128"
target triple = "x86_64-pc-linux-gnu"

%class.GrowableArrayBase = type { i32, i32 }
%class.GrowableArrayView.2 = type { %class.GrowableArrayBase, ptr }

; Function Attrs: mustprogress nounwind uwtable
define linkonce_odr hidden void @_ZN17GrowableArrayViewIP12ciBaseObjectE6at_putEiRKS1_(ptr noundef nonnull align 8 dereferenceable(16) %0, i32 noundef %1, ptr noundef nonnull align 8 dereferenceable(8) %2) #1 comdat align 2 {
  %4 = alloca ptr, align 8
  %5 = alloca i32, align 4
  %6 = alloca ptr, align 8
  store ptr %0, ptr %4, align 8
  store i32 %1, ptr %5, align 4
  store ptr %2, ptr %6, align 8
  %7 = load ptr, ptr %4, align 8
  %8 = load ptr, ptr %6, align 8
  %9 = load ptr, ptr %8, align 8
  %10 = getelementptr inbounds %class.GrowableArrayView.2, ptr %7, i32 0, i32 1
  %11 = load ptr, ptr %10, align 8
  %12 = load i32, ptr %5, align 4
  %13 = sext i32 %12 to i64
  %14 = getelementptr inbounds ptr, ptr %11, i64 %13
  store ptr %9, ptr %14, align 8
  ret void
}

; Function Attrs: mustprogress nounwind uwtable
define linkonce_odr hidden noundef ptr @_ZN10ciMetadata8as_klassEv(ptr noundef nonnull align 8 dereferenceable(24) %0) #1 comdat align 2 {
  %2 = alloca ptr, align 8
  store ptr %0, ptr %2, align 8
  %3 = load ptr, ptr %2, align 8
  ret ptr %3
}

; Function Attrs: mustprogress nounwind uwtable
define linkonce_odr hidden noundef ptr @_ZN12ciBaseObject11as_metadataEv(ptr noundef nonnull align 8 dereferenceable(12) %0) #1 comdat align 2 {
  %2 = alloca ptr, align 8
  store ptr %0, ptr %2, align 8
  %3 = load ptr, ptr %2, align 8
  ret ptr %3
}

; Function Attrs: mustprogress nounwind uwtable
define linkonce_odr hidden noundef nonnull align 8 dereferenceable(8) ptr @_ZN17GrowableArrayViewIP12ciBaseObjectE2atEi(ptr noundef nonnull align 8 dereferenceable(16) %0, i32 noundef %1) #1 comdat align 2 {
  %3 = alloca ptr, align 8
  %4 = alloca i32, align 4
  store ptr %0, ptr %3, align 8
  store i32 %1, ptr %4, align 4
  %5 = load ptr, ptr %3, align 8
  %6 = getelementptr inbounds %class.GrowableArrayView.2, ptr %5, i32 0, i32 1
  %7 = load ptr, ptr %6, align 8
  %8 = load i32, ptr %4, align 4
  %9 = sext i32 %8 to i64
  %10 = getelementptr inbounds ptr, ptr %7, i64 %9
  ret ptr %10
}

; Function Attrs: mustprogress nounwind uwtable
define hidden noundef zeroext i1 @_ZN12Dependencies16maybe_merge_ctxkEP13GrowableArrayIP12ciBaseObjectEiP7ciKlass(ptr noundef nonnull align 8 dereferenceable(192) %0, ptr noundef %1, i32 noundef %2, ptr noundef %3) #1 align 2 {
  %5 = alloca i1, align 1
  %6 = alloca ptr, align 8
  %7 = alloca ptr, align 8
  %8 = alloca i32, align 4
  %9 = alloca ptr, align 8
  %10 = alloca ptr, align 8
  %11 = alloca ptr, align 8
  store ptr %0, ptr %6, align 8
  store ptr %1, ptr %7, align 8
  store i32 %2, ptr %8, align 4
  store ptr %3, ptr %9, align 8
  %12 = load ptr, ptr %7, align 8
  %13 = load i32, ptr %8, align 4
  %14 = call noundef nonnull align 8 dereferenceable(8) ptr @_ZN17GrowableArrayViewIP12ciBaseObjectE2atEi(ptr noundef nonnull align 8 dereferenceable(16) %12, i32 noundef %13)
  %15 = load ptr, ptr %14, align 8
  %16 = call noundef ptr @_ZN12ciBaseObject11as_metadataEv(ptr noundef nonnull align 8 dereferenceable(12) %15)
  %17 = call noundef ptr @_ZN10ciMetadata8as_klassEv(ptr noundef nonnull align 8 dereferenceable(24) %16)
  store ptr %17, ptr %10, align 8
  %18 = load ptr, ptr %9, align 8
  %19 = load ptr, ptr %10, align 8
  %20 = call noundef zeroext i1 @_ZN7ciKlass13is_subtype_ofEPS_(ptr noundef nonnull align 8 dereferenceable(44) %18, ptr noundef %19)
  br i1 %20, label %21, label %22

21:                                               ; preds = %4
  store i1 true, ptr %5, align 1
  br label %31

22:                                               ; preds = %4
  %23 = load ptr, ptr %10, align 8
  %24 = load ptr, ptr %9, align 8
  %25 = call noundef zeroext i1 @_ZN7ciKlass13is_subtype_ofEPS_(ptr noundef nonnull align 8 dereferenceable(44) %23, ptr noundef %24)
  br i1 %25, label %26, label %30

26:                                               ; preds = %22
  %27 = load ptr, ptr %7, align 8
  %28 = load i32, ptr %8, align 4
  %29 = load ptr, ptr %9, align 8
  store ptr %29, ptr %11, align 8
  call void @_ZN17GrowableArrayViewIP12ciBaseObjectE6at_putEiRKS1_(ptr noundef nonnull align 8 dereferenceable(16) %27, i32 noundef %28, ptr noundef nonnull align 8 dereferenceable(8) %11)
  store i1 true, ptr %5, align 1
  br label %31

30:                                               ; preds = %22
  store i1 false, ptr %5, align 1
  br label %31

31:                                               ; preds = %30, %26, %21
  %32 = load i1, ptr %5, align 1
  ret i1 %32
}