; Function Attrs: mustprogress nounwind uwtable
define hidden noundef zeroext i1 @_ZN12Dependencies16maybe_merge_ctxkEP13GrowableArrayIP12ciBaseObjectEiP7ciKlass(ptr nocapture noundef nonnull readnone align 8 dereferenceable(192) %0, ptr nocapture noundef readonly %1, i32 noundef %2, ptr noundef nonnull %3) local_unnamed_addr #0 align 2 {
  %5 = getelementptr inbounds i8, ptr %1, i64 8
  %6 = load ptr, ptr %5, align 8
  %7 = sext i32 %2 to i64
  %8 = getelementptr inbounds ptr, ptr %6, i64 %7
  %9 = load ptr, ptr %8, align 8
  %10 = tail call noundef zeroext i1 @_ZN7ciKlass13is_subtype_ofEPS_(ptr noundef nonnull align 8 dereferenceable(44) %3, ptr noundef %9) #18
  br i1 %10, label %16, label %11

11:                                               ; preds = %4
  %12 = tail call noundef zeroext i1 @_ZN7ciKlass13is_subtype_ofEPS_(ptr noundef nonnull align 8 dereferenceable(44) %9, ptr noundef nonnull %3) #18
  br i1 %12, label %13, label %16

13:                                               ; preds = %11
  %14 = load ptr, ptr %5, align 8
  %15 = getelementptr inbounds ptr, ptr %14, i64 %7
  store ptr %3, ptr %15, align 8
  br label %16

16:                                               ; preds = %11, %4, %13
  %.0 = phi i1 [ true, %13 ], [ true, %4 ], [ false, %11 ]
  ret i1 %.0
}